A51 MACRO ASSEMBLER  TCM320_868MHZ_DEFAULT                                                03/28/2014 15:25:22 PAGE     1


MACRO ASSEMBLER A51 V8.01
OBJECT MODULE PLACED IN .\Output\tcm320-868mhz-default.obj
ASSEMBLER INVOKED BY: C:\Keil\C51\BIN\A51.EXE ..\..\EO3000I_LIB\RadioCFG\tcm320-868mhz-default.a51 SET(LARGE) DEBUG PRIN
                      T(.\Output\tcm320-868mhz-default.lst) OBJECT(.\Output\tcm320-868mhz-default.obj) EP

LOC  OBJ            LINE     SOURCE

                       1     
                       2     ;ES1.3 868 Id: int_setup_default_RXTX_868mhz.txt,v 1.51 2012/01/26 10:00:26 attila.strba Ex
                             p 
                       3     
                       4     PUBLIC _radio_init_asm
                       5     PUBLIC u8RssiCalib
                       6     
                       7     ?CO?radio_init SEGMENT CODE
----                   8             RSEG ?CO?radio_init
                       9     
0000 E0524144         10     TABLE:  DB   0xE0,'R','A','D','I','O',8,1,51,1,3,0,0,0xE0
0004 494F0801                
0008 33010300                
000C 00E0                    
                      11     
                      12     ?PR?_radio_init_asm?RADIO_INIT_ASM SEGMENT CODE 
----                  13         RSEG ?PR?_radio_init_asm?RADIO_INIT_ASM
                      14     
0000                  15     u8RssiCalib:
0000 5F               16         DB  05FH
0001 5F               17         DB  05FH
0002 5F               18         DB  05FH
0003 5F               19         DB  05FH
0004 5F               20         DB  05FH
0005 5F               21         DB  05FH
0006 5C               22         DB  05CH
0007 56               23         DB  056H
0008 50               24         DB  050H
0009 4A               25         DB  04AH
000A 44               26         DB  044H
000B 3D               27         DB  03DH
000C 37               28         DB  037H
000D 31               29         DB  031H
000E 2D               30         DB  02DH
000F 2D               31         DB  02DH
                      32     
0010                  33     _radio_init_asm:
                      34     
0010 EF               35     MOV A, R7
0011 B40203           36     CJNE A,#0x02, RADIO_INIT
0014 020000   F       37     LJMP SEND_ANALOG0_CHAIN
                      38     
0017                  39     RADIO_INIT:
0017 7003             40     JNZ  RADIO_INIT_CHAINS
                      41     
0019                  42     ONLY_SEND_JLCC:
0019 020000   F       43     LJMP SEND_JLCC_CHAIN
                      44     
001C                  45     RADIO_INIT_CHAINS:
                      46     ;SFRR 0x00CE, 0x00000036
001C 75CE36           47     MOV 0xCE, #0x36
                      48     ;SFRR 0x00D7, 0x00000005
001F 75D705           49     MOV 0xD7, #0x05
                      50     ;SFRR 0x00BC, 0x00000040
0022 75BC40           51     MOV 0xBC, #0x40
                      52     ;APBR 0x0B00, 0x00000000
0025 75C000           53     MOV 0xC0, #0x00
A51 MACRO ASSEMBLER  TCM320_868MHZ_DEFAULT                                                03/28/2014 15:25:22 PAGE     2

0028 75C10B           54     MOV 0xC1, #0x0B
002B 75D800           55     MOV 0xD8, #0x00
002E 75D900           56     MOV 0xD9, #0x00
0031 75DA00           57     MOV 0xDA, #0x00
0034 75DB00           58     MOV 0xDB, #0x00
0037 75C201           59     MOV 0xC2, #0x01
                      60     ;APBR 0x0E00, 0x00000000
003A 75C10E           61     MOV 0xC1, #0x0E
003D 75C201           62     MOV 0xC2, #0x01
                      63     ;APBR 0x0F00, 0x00000000
0040 75C10F           64     MOV 0xC1, #0x0F
0043 75C201           65     MOV 0xC2, #0x01
                      66     ;APBR 0x1100, 0x00000000
0046 75C111           67     MOV 0xC1, #0x11
0049 75C201           68     MOV 0xC2, #0x01
                      69     ;APBR 0x0A00, 0x00000001
004C 75C10A           70     MOV 0xC1, #0x0A
004F 75D801           71     MOV 0xD8, #0x01
0052 75C201           72     MOV 0xC2, #0x01
                      73     ;APBR 0x1214, 0x00000002
0055 75C014           74     MOV 0xC0, #0x14
0058 75C112           75     MOV 0xC1, #0x12
005B 75D802           76     MOV 0xD8, #0x02
005E 75C201           77     MOV 0xC2, #0x01
                      78     ;APBR 0x0900, 0x00000021
0061 75C000           79     MOV 0xC0, #0x00
0064 75C109           80     MOV 0xC1, #0x09
0067 75D821           81     MOV 0xD8, #0x21
006A 75C201           82     MOV 0xC2, #0x01
                      83     ;APBR 0x0C00, 0x00000038
006D 75C10C           84     MOV 0xC1, #0x0C
0070 75D838           85     MOV 0xD8, #0x38
0073 75C201           86     MOV 0xC2, #0x01
                      87     ;APBR 0x0D00, 0x00000038
0076 75C10D           88     MOV 0xC1, #0x0D
0079 75C201           89     MOV 0xC2, #0x01
                      90     ;APBR 0x0908, 0x013C3C4B
007C 75C008           91     MOV 0xC0, #0x08
007F 75C109           92     MOV 0xC1, #0x09
0082 75D84B           93     MOV 0xD8, #0x4B
0085 75D93C           94     MOV 0xD9, #0x3C
0088 75DA3C           95     MOV 0xDA, #0x3C
008B 75DB01           96     MOV 0xDB, #0x01
008E 75C201           97     MOV 0xC2, #0x01
                      98     ;APBR 0x0904, 0x58105828
0091 75C004           99     MOV 0xC0, #0x04
0094 75D828          100     MOV 0xD8, #0x28
0097 75D958          101     MOV 0xD9, #0x58
009A 75DA10          102     MOV 0xDA, #0x10
009D 75DB58          103     MOV 0xDB, #0x58
00A0 75C201          104     MOV 0xC2, #0x01
                     105     ;APBR 0x0104, 0x00000000
00A3 75C101          106     MOV 0xC1, #0x01
00A6 75D800          107     MOV 0xD8, #0x00
00A9 75D900          108     MOV 0xD9, #0x00
00AC 75DA00          109     MOV 0xDA, #0x00
00AF 75DB00          110     MOV 0xDB, #0x00
00B2 75C201          111     MOV 0xC2, #0x01
                     112     ;APBR 0x0108, 0x00000000
00B5 75C008          113     MOV 0xC0, #0x08
00B8 75C201          114     MOV 0xC2, #0x01
                     115     ;APBR 0x010C, 0x00000000
00BB 75C00C          116     MOV 0xC0, #0x0C
00BE 75C201          117     MOV 0xC2, #0x01
                     118     ;APBR 0x0110, 0x00000000
00C1 75C010          119     MOV 0xC0, #0x10
A51 MACRO ASSEMBLER  TCM320_868MHZ_DEFAULT                                                03/28/2014 15:25:22 PAGE     3

00C4 75C201          120     MOV 0xC2, #0x01
                     121     ;APBR 0x1608, 0x00000000
00C7 75C008          122     MOV 0xC0, #0x08
00CA 75C116          123     MOV 0xC1, #0x16
00CD 75C201          124     MOV 0xC2, #0x01
                     125     ;APBR 0x160C, 0x00000000
00D0 75C00C          126     MOV 0xC0, #0x0C
00D3 75C201          127     MOV 0xC2, #0x01
                     128     ;APBR 0x1908, 0x00000002
00D6 75C008          129     MOV 0xC0, #0x08
00D9 75C119          130     MOV 0xC1, #0x19
00DC 75D802          131     MOV 0xD8, #0x02
00DF 75C201          132     MOV 0xC2, #0x01
                     133     ;APBR 0x1808, 0x000001E3
00E2 75C118          134     MOV 0xC1, #0x18
00E5 75D8E3          135     MOV 0xD8, #0xE3
00E8 75D901          136     MOV 0xD9, #0x01
00EB 75C201          137     MOV 0xC2, #0x01
                     138     ;APBR 0x1804, 0x00000528
00EE 75C004          139     MOV 0xC0, #0x04
00F1 75D828          140     MOV 0xD8, #0x28
00F4 75D905          141     MOV 0xD9, #0x05
00F7 75C201          142     MOV 0xC2, #0x01
                     143     ;APBR 0x1604, 0x00060000
00FA 75C116          144     MOV 0xC1, #0x16
00FD 75D800          145     MOV 0xD8, #0x00
0100 75D900          146     MOV 0xD9, #0x00
0103 75DA06          147     MOV 0xDA, #0x06
0106 75C201          148     MOV 0xC2, #0x01
                     149     ;APBR 0x1904, 0x0C5171C0
0109 75C119          150     MOV 0xC1, #0x19
010C 75D8C0          151     MOV 0xD8, #0xC0
010F 75D971          152     MOV 0xD9, #0x71
0112 75DA51          153     MOV 0xDA, #0x51
0115 75DB0C          154     MOV 0xDB, #0x0C
0118 75C201          155     MOV 0xC2, #0x01
011B                 156     SEND_JLCC_CHAIN:
                     157     ;APBR 0x1800, 0x00000001
011B 75C000          158     MOV 0xC0, #0x00
011E 75C118          159     MOV 0xC1, #0x18
0121 75D801          160     MOV 0xD8, #0x01
0124 75D900          161     MOV 0xD9, #0x00
0127 75DA00          162     MOV 0xDA, #0x00
012A 75DB00          163     MOV 0xDB, #0x00
012D 75C201          164     MOV 0xC2, #0x01
                     165     ;APBR 0x1900, 0x00000001
0130 75C119          166     MOV 0xC1, #0x19
0133 75C201          167     MOV 0xC2, #0x01
                     168     ;APBR 0x1600, 0x00000001
0136 75C116          169     MOV 0xC1, #0x16
0139 75C201          170     MOV 0xC2, #0x01
                     171     ;APBR 0x0100, 0x00000001
013C 75C101          172     MOV 0xC1, #0x01
013F 75C201          173     MOV 0xC2, #0x01
0142 22              174     RET
                     175     
                     176     
0143                 177     SEND_ANALOG0_CHAIN:
                     178     ;APBR 0x1704, 0x098A96DA
0143 75C004          179     MOV 0xC0, #0x04
0146 75C117          180     MOV 0xC1, #0x17
0149 75D8DA          181     MOV 0xD8, #0xDA
014C 75D996          182     MOV 0xD9, #0x96
014F 75DA8A          183     MOV 0xDA, #0x8A
0152 75DB09          184     MOV 0xDB, #0x09
0155 75C201          185     MOV 0xC2, #0x01
A51 MACRO ASSEMBLER  TCM320_868MHZ_DEFAULT                                                03/28/2014 15:25:22 PAGE     4

                     186     ;APBR 0x1708, 0x000000E0
0158 75C008          187     MOV 0xC0, #0x08
015B 75D8E0          188     MOV 0xD8, #0xE0
015E 75D900          189     MOV 0xD9, #0x00
0161 75DA00          190     MOV 0xDA, #0x00
0164 75DB00          191     MOV 0xDB, #0x00
0167 75C201          192     MOV 0xC2, #0x01
                     193     ;APBR 0x1700, 0x00000001
016A 75C000          194     MOV 0xC0, #0x00
016D 75D801          195     MOV 0xD8, #0x01
0170 75C201          196     MOV 0xC2, #0x01
0173 22              197     RET
                     198     
                     199     END
A51 MACRO ASSEMBLER  TCM320_868MHZ_DEFAULT                                                03/28/2014 15:25:22 PAGE     5

SYMBOL TABLE LISTING
------ ----- -------


N A M E                             T Y P E  V A L U E   ATTRIBUTES

?CO?RADIO_INIT . . . . . . . . . .  C SEG    000EH       REL=UNIT
?PR?_RADIO_INIT_ASM?RADIO_INIT_ASM  C SEG    0174H       REL=UNIT
ONLY_SEND_JLCC . . . . . . . . . .  C ADDR   0019H   R   SEG=?PR?_RADIO_INIT_ASM?RADIO_INIT_ASM
RADIO_INIT . . . . . . . . . . . .  C ADDR   0017H   R   SEG=?PR?_RADIO_INIT_ASM?RADIO_INIT_ASM
RADIO_INIT_CHAINS. . . . . . . . .  C ADDR   001CH   R   SEG=?PR?_RADIO_INIT_ASM?RADIO_INIT_ASM
SEND_ANALOG0_CHAIN . . . . . . . .  C ADDR   0143H   R   SEG=?PR?_RADIO_INIT_ASM?RADIO_INIT_ASM
SEND_JLCC_CHAIN. . . . . . . . . .  C ADDR   011BH   R   SEG=?PR?_RADIO_INIT_ASM?RADIO_INIT_ASM
TABLE. . . . . . . . . . . . . . .  C ADDR   0000H   R   SEG=?CO?RADIO_INIT
U8RSSICALIB. . . . . . . . . . . .  C ADDR   0000H   R   SEG=?PR?_RADIO_INIT_ASM?RADIO_INIT_ASM
_RADIO_INIT_ASM. . . . . . . . . .  C ADDR   0010H   R   SEG=?PR?_RADIO_INIT_ASM?RADIO_INIT_ASM


REGISTER BANK(S) USED: 0 


ASSEMBLY COMPLETE.  0 WARNING(S), 0 ERROR(S)
